Certificate:
    Data:
        Version: 3 (0x2)
        Serial Number: 1 (0x1)
    Signature Algorithm: sha256WithRSAEncryption
        Issuer: CN=devcert
        Validity
            Not Before: May  3 17:27:23 2020 GMT
            Not After : Aug  6 17:27:23 2022 GMT
        Subject: CN=localhost
        Subject Public Key Info:
            Public Key Algorithm: rsaEncryption
                Public-Key: (2048 bit)
                Modulus:
                    00:ae:84:42:da:d7:9e:ab:3d:3d:be:f9:c0:db:71:
                    7a:88:e5:b5:be:8c:a1:32:66:87:3e:65:18:69:ca:
                    b6:1c:3b:1d:11:97:6b:5b:af:2a:45:5b:c9:fe:c0:
                    0e:db:91:6e:2b:9c:90:62:b3:19:97:6c:fc:7d:fc:
                    72:cc:fc:58:8b:b9:31:8a:6d:78:67:d4:08:28:f6:
                    b4:44:4d:c0:65:0d:4f:f2:61:04:97:ee:3a:b2:28:
                    64:e0:25:9c:ed:81:d0:89:80:a1:59:db:7f:48:f4:
                    28:4d:0e:46:aa:d0:86:0a:59:6f:c5:83:5f:8b:98:
                    01:41:80:01:4b:48:46:43:3b:a1:93:2a:f4:1f:83:
                    c4:d0:b0:5e:1d:e5:97:b1:fa:93:71:70:f2:32:87:
                    25:32:92:9c:44:d7:41:38:08:92:b0:a2:ae:b9:1d:
                    bb:3f:e3:29:13:34:ad:06:d1:41:83:31:aa:ba:30:
                    f2:77:ab:0c:4b:9a:71:ba:b7:5b:53:be:d9:ad:99:
                    19:66:b1:c9:49:8c:8d:8f:2b:29:d0:d8:14:bb:f2:
                    34:5d:1d:0a:ed:e1:60:4c:73:0e:d5:db:73:ee:92:
                    a9:21:08:05:83:aa:bc:44:c6:a7:5f:c6:06:e0:c4:
                    f8:ea:d2:b9:31:6d:6d:84:28:38:37:18:a6:64:e3:
                    16:33
                Exponent: 65537 (0x10001)
        X509v3 extensions:
            X509v3 Basic Constraints: critical
                CA:FALSE
            X509v3 Subject Key Identifier: 
                71:BF:9C:7E:82:89:59:4F:12:9B:82:C3:0D:BB:E1:A5:F1:45:43:DA
            X509v3 Authority Key Identifier: 
                keyid:82:58:85:F3:78:85:8E:9E:AC:9E:D2:38:5A:6D:C5:94:67:E0:29:9A
                DirName:/CN=devcert
                serial:D3:59:89:AA:06:BA:02:4D

            X509v3 Key Usage: critical
                Digital Signature, Key Encipherment
            X509v3 Extended Key Usage: 
                TLS Web Server Authentication
            X509v3 Subject Alternative Name: 
                DNS:localhost, DNS:*.localhost
    Signature Algorithm: sha256WithRSAEncryption
         c2:71:1d:e9:39:cc:e1:2f:84:15:26:d4:86:13:a7:bb:87:e8:
         fa:d4:50:ce:c1:dc:e5:04:ef:40:05:56:55:5f:f9:5f:d8:fd:
         ae:15:93:1d:3c:a4:50:9d:a0:22:c5:77:af:60:bb:0e:8b:34:
         1a:ab:5d:5a:73:20:41:10:4f:9f:a4:a1:f2:4c:d1:b1:7b:1c:
         bc:0e:8a:b2:be:8a:4d:02:7c:1e:ae:c6:88:40:28:f9:2a:c0:
         91:74:28:20:7b:f3:94:a4:fa:72:a7:54:a2:43:b0:96:5d:49:
         47:8a:af:3d:84:ea:6b:22:32:12:92:8e:04:e7:9d:53:b6:60:
         7e:58:ff:27:bf:98:6f:64:3e:d9:fc:4b:7c:f8:7d:c8:d3:1d:
         61:1b:ae:b6:f7:e1:21:de:d3:a6:69:16:8f:d9:30:8c:f3:bc:
         21:1a:4f:3f:8b:98:64:1b:8c:80:7d:b3:b1:fd:22:d5:fa:7b:
         b2:0a:9f:c0:31:73:9b:fb:12:45:12:e4:ee:b4:8c:e9:6a:a3:
         aa:3c:f7:82:2f:b8:c8:4f:0a:36:64:c9:49:e0:06:02:4e:f5:
         eb:27:23:ea:16:8e:1c:23:c7:db:f2:ba:ea:9a:12:c3:15:e0:
         a7:93:54:b7:88:6d:8d:1b:c4:6f:25:c4:30:d2:f7:a2:d1:53:
         5b:26:25:61
-----BEGIN CERTIFICATE-----
MIIDXjCCAkagAwIBAgIBATANBgkqhkiG9w0BAQsFADASMRAwDgYDVQQDDAdkZXZj
ZXJ0MB4XDTIwMDUwMzE3MjcyM1oXDTIyMDgwNjE3MjcyM1owFDESMBAGA1UEAwwJ
bG9jYWxob3N0MIIBIjANBgkqhkiG9w0BAQEFAAOCAQ8AMIIBCgKCAQEAroRC2tee
qz09vvnA23F6iOW1voyhMmaHPmUYacq2HDsdEZdrW68qRVvJ/sAO25FuK5yQYrMZ
l2z8ffxyzPxYi7kxim14Z9QIKPa0RE3AZQ1P8mEEl+46sihk4CWc7YHQiYChWdt/
SPQoTQ5GqtCGCllvxYNfi5gBQYABS0hGQzuhkyr0H4PE0LBeHeWXsfqTcXDyMocl
MpKcRNdBOAiSsKKuuR27P+MpEzStBtFBgzGqujDyd6sMS5pxurdbU77ZrZkZZrHJ
SYyNjysp0NgUu/I0XR0K7eFgTHMO1dtz7pKpIQgFg6q8RManX8YG4MT46tK5MW1t
hCg4NximZOMWMwIDAQABo4G8MIG5MAwGA1UdEwEB/wQCMAAwHQYDVR0OBBYEFHG/
nH6CiVlPEpuCww274aXxRUPaMEIGA1UdIwQ7MDmAFIJYhfN4hY6erJ7SOFptxZRn
4CmaoRakFDASMRAwDgYDVQQDDAdkZXZjZXJ0ggkA01mJqga6Ak0wDgYDVR0PAQH/
BAQDAgWgMBMGA1UdJQQMMAoGCCsGAQUFBwMBMCEGA1UdEQQaMBiCCWxvY2FsaG9z
dIILKi5sb2NhbGhvc3QwDQYJKoZIhvcNAQELBQADggEBAMJxHek5zOEvhBUm1IYT
p7uH6PrUUM7B3OUE70AFVlVf+V/Y/a4Vkx08pFCdoCLFd69guw6LNBqrXVpzIEEQ
T5+kofJM0bF7HLwOirK+ik0CfB6uxohAKPkqwJF0KCB785Sk+nKnVKJDsJZdSUeK
rz2E6msiMhKSjgTnnVO2YH5Y/ye/mG9kPtn8S3z4fcjTHWEbrrb34SHe06ZpFo/Z
MIzzvCEaTz+LmGQbjIB9s7H9ItX6e7IKn8Axc5v7EkUS5O60jOlqo6o894IvuMhP
CjZkyUngBgJO9esnI+oWjhwjx9vyuuqaEsMV4KeTVLeIbY0bxG8lxDDS96LRU1sm
JWE=
-----END CERTIFICATE-----
